target datalayout = "e-m:e-p270:32:32-p271:32:32-p272:64:64-i64:64-i128:128-f80:128-n8:16:32:64-S128"
target triple = "x86_64-pc-linux-gnu"

%struct.opj_codec_private = type { %union.anon, ptr, %struct.opj_event_mgr, i32, ptr, ptr, ptr, ptr }
%union.anon = type { %struct.opj_decompression }
%struct.opj_decompression = type { ptr, ptr, ptr, ptr, ptr, ptr, ptr, ptr, ptr, ptr, ptr, ptr }
%struct.opj_event_mgr = type { ptr, ptr, ptr, ptr, ptr, ptr }
%struct.opj_compression = type { ptr, ptr, ptr, ptr, ptr, ptr, ptr }

; Function Attrs: nounwind uwtable
define hidden i32 @opj_end_compress(ptr noundef %0, ptr noundef %1) #0 {
  %3 = alloca i32, align 4
  %4 = alloca ptr, align 8
  %5 = alloca ptr, align 8
  %6 = alloca ptr, align 8
  %7 = alloca ptr, align 8
  %8 = alloca i32, align 4
  store ptr %0, ptr %4, align 8, !tbaa !3
  store ptr %1, ptr %5, align 8, !tbaa !3
  %9 = load ptr, ptr %4, align 8, !tbaa !3
  %10 = icmp ne ptr %9, null
  br i1 %10, label %11, label %37

11:                                               ; preds = %2
  %12 = load ptr, ptr %5, align 8, !tbaa !3
  %13 = icmp ne ptr %12, null
  br i1 %13, label %14, label %37

14:                                               ; preds = %11
  call void @llvm.lifetime.start.p0(i64 8, ptr %6) #5
  %15 = load ptr, ptr %4, align 8, !tbaa !3
  store ptr %15, ptr %6, align 8, !tbaa !9
  call void @llvm.lifetime.start.p0(i64 8, ptr %7) #5
  %16 = load ptr, ptr %5, align 8, !tbaa !3
  store ptr %16, ptr %7, align 8, !tbaa !38
  %17 = load ptr, ptr %6, align 8, !tbaa !9
  %18 = getelementptr inbounds nuw %struct.opj_codec_private, ptr %17, i32 0, i32 3
  %19 = load i32, ptr %18, align 8, !tbaa !21
  %20 = icmp ne i32 %19, 0
  br i1 %20, label %33, label %21

21:                                               ; preds = %14
  %22 = load ptr, ptr %6, align 8, !tbaa !9
  %23 = getelementptr inbounds nuw %struct.opj_codec_private, ptr %22, i32 0, i32 0
  %24 = getelementptr inbounds nuw %struct.opj_compression, ptr %23, i32 0, i32 3
  %25 = load ptr, ptr %24, align 8, !tbaa !25
  %26 = load ptr, ptr %6, align 8, !tbaa !9
  %27 = getelementptr inbounds nuw %struct.opj_codec_private, ptr %26, i32 0, i32 1
  %28 = load ptr, ptr %27, align 8, !tbaa !27
  %29 = load ptr, ptr %7, align 8, !tbaa !38
  %30 = load ptr, ptr %6, align 8, !tbaa !9
  %31 = getelementptr inbounds nuw %struct.opj_codec_private, ptr %30, i32 0, i32 2
  %32 = call i32 %25(ptr noundef %28, ptr noundef %29, ptr noundef %31)
  store i32 %32, ptr %3, align 4
  store i32 1, ptr %8, align 4
  br label %34

33:                                               ; preds = %14
  store i32 0, ptr %8, align 4
  br label %34

34:                                               ; preds = %33, %21
  call void @llvm.lifetime.end.p0(i64 8, ptr %7) #5
  call void @llvm.lifetime.end.p0(i64 8, ptr %6) #5
  %35 = load i32, ptr %8, align 4
  switch i32 %35, label %40 [
    i32 0, label %36
    i32 1, label %38
  ]

36:                                               ; preds = %34
  br label %37

37:                                               ; preds = %36, %11, %2
  store i32 0, ptr %3, align 4
  br label %38

38:                                               ; preds = %37, %34
  %39 = load i32, ptr %3, align 4
  ret i32 %39

40:                                               ; preds = %34
  unreachable
}